Certificate:
    Data:
        Version: 3 (0x2)
        Serial Number: 4096 (0x1000)
    Signature Algorithm: sha1WithRSAEncryption
        Issuer: C=US, ST=NY, L=Syracuse, O=SU, OU=EECS, CN=VPNLab.com/emailAddress=duanhongyu2010@gmail.com
        Validity
            Not Before: Apr 17 20:21:51 2016 GMT
            Not After : Apr 17 20:21:51 2017 GMT
        Subject: C=US, ST=NY, L=Syracuse, O=SU, OU=CS, CN=PKILabServer.com/emailAddress=hoduan@syr.edu
        Subject Public Key Info:
            Public Key Algorithm: rsaEncryption
                Public-Key: (1024 bit)
                Modulus:
                    00:9d:3b:d5:d7:d4:b5:18:5d:7a:34:3d:5f:9a:f9:
                    73:80:9a:cc:68:d8:5f:62:7a:48:3f:9c:88:67:cc:
                    50:b3:61:57:cb:4c:eb:5c:8c:36:9a:dc:e4:84:7c:
                    85:14:2a:36:c9:cd:16:b3:65:d7:6b:58:bd:d5:c0:
                    e3:e6:90:e8:70:a9:88:74:dd:10:44:ed:2a:51:49:
                    b8:d8:61:bb:60:05:06:a6:c0:8f:2d:f8:d0:a5:72:
                    4d:4b:9e:6c:55:5e:81:d0:ca:a2:5b:23:d6:9f:28:
                    80:b0:59:62:99:f9:00:25:55:36:f4:85:7a:88:bc:
                    8b:37:cd:e4:23:4d:4c:e5:05
                Exponent: 65537 (0x10001)
        X509v3 extensions:
            X509v3 Basic Constraints: 
                CA:FALSE
            Netscape Comment: 
                OpenSSL Generated Certificate
            X509v3 Subject Key Identifier: 
                CF:2A:32:4E:6A:3B:B1:01:CA:B1:99:65:38:2C:F7:E5:73:BC:2E:6D
            X509v3 Authority Key Identifier: 
                keyid:56:D7:25:27:05:BA:6B:59:E4:BB:65:8B:71:E5:8F:28:7D:87:D4:4A

    Signature Algorithm: sha1WithRSAEncryption
         59:06:f8:d3:36:d5:41:d3:82:00:ee:19:d0:7e:17:39:5f:f1:
         04:d8:dc:a7:3f:38:cd:cd:80:a4:9a:93:82:e1:7a:89:8e:ea:
         bb:48:4b:a6:06:1c:ed:e9:53:32:d7:e6:78:ef:15:24:9c:13:
         37:83:ca:0a:8b:d8:99:5e:e9:fc:12:ba:fe:d8:f2:0a:9b:bb:
         28:ce:5b:98:98:28:16:04:b5:86:15:34:ef:1c:03:c2:19:49:
         69:98:6e:27:87:90:18:bf:d4:5b:4e:6c:64:59:c3:a0:3a:d4:
         7b:c5:46:34:01:55:f8:e7:84:b1:0e:85:64:7d:97:4f:79:f3:
         dc:66
-----BEGIN CERTIFICATE-----
MIIC/DCCAmWgAwIBAgICEAAwDQYJKoZIhvcNAQEFBQAwgYcxCzAJBgNVBAYTAlVT
MQswCQYDVQQIDAJOWTERMA8GA1UEBwwIU3lyYWN1c2UxCzAJBgNVBAoMAlNVMQ0w
CwYDVQQLDARFRUNTMRMwEQYDVQQDDApWUE5MYWIuY29tMScwJQYJKoZIhvcNAQkB
FhhkdWFuaG9uZ3l1MjAxMEBnbWFpbC5jb20wHhcNMTYwNDE3MjAyMTUxWhcNMTcw
NDE3MjAyMTUxWjCBgTELMAkGA1UEBhMCVVMxCzAJBgNVBAgMAk5ZMREwDwYDVQQH
DAhTeXJhY3VzZTELMAkGA1UECgwCU1UxCzAJBgNVBAsMAkNTMRkwFwYDVQQDDBBQ
S0lMYWJTZXJ2ZXIuY29tMR0wGwYJKoZIhvcNAQkBFg5ob2R1YW5Ac3lyLmVkdTCB
nzANBgkqhkiG9w0BAQEFAAOBjQAwgYkCgYEAnTvV19S1GF16ND1fmvlzgJrMaNhf
YnpIP5yIZ8xQs2FXy0zrXIw2mtzkhHyFFCo2yc0Ws2XXa1i91cDj5pDocKmIdN0Q
RO0qUUm42GG7YAUGpsCPLfjQpXJNS55sVV6B0MqiWyPWnyiAsFlimfkAJVU29IV6
iLyLN83kI01M5QUCAwEAAaN7MHkwCQYDVR0TBAIwADAsBglghkgBhvhCAQ0EHxYd
T3BlblNTTCBHZW5lcmF0ZWQgQ2VydGlmaWNhdGUwHQYDVR0OBBYEFM8qMk5qO7EB
yrGZZTgs9+VzvC5tMB8GA1UdIwQYMBaAFFbXJScFumtZ5Ltli3Hljyh9h9RKMA0G
CSqGSIb3DQEBBQUAA4GBAFkG+NM21UHTggDuGdB+Fzlf8QTY3Kc/OM3NgKSak4Lh
eomO6rtIS6YGHO3pUzLX5njvFSScEzeDygqL2Jle6fwSuv7Y8gqbuyjOW5iYKBYE
tYYVNO8cA8IZSWmYbieHkBi/1FtObGRZw6A61HvFRjQBVfjnhLEOhWR9l09589xm
-----END CERTIFICATE-----
