Certificate:
    Data:
        Version: 3 (0x2)
        Serial Number: 4096 (0x1000)
    Signature Algorithm: sha1WithRSAEncryption
        Issuer: C=US, ST=NY, L=Syracuse, O=SU, OU=EECS, CN=IS.com/emailAddress=duanhongyu2010@gmail.com
        Validity
            Not Before: Apr 19 18:39:43 2016 GMT
            Not After : Apr 19 18:39:43 2017 GMT
        Subject: C=US, ST=NY, O=SU, OU=EECS, CN=ho.duan/emailAddress=hoduan@syr.edu
        Subject Public Key Info:
            Public Key Algorithm: rsaEncryption
                Public-Key: (1024 bit)
                Modulus:
                    00:a3:44:65:d2:16:38:eb:78:97:9d:b7:eb:f4:3e:
                    92:9b:0f:dc:67:b1:49:8b:fc:62:03:9a:a6:03:6b:
                    a2:37:32:ee:7b:45:b8:4a:ff:1f:aa:d7:11:24:a8:
                    da:2f:1c:f6:ab:58:5f:54:bf:09:9e:fa:8d:68:d4:
                    77:bb:7a:61:27:88:19:18:b8:22:c5:49:28:27:ed:
                    09:f8:1f:00:91:a9:46:b8:41:b8:62:69:c0:f8:64:
                    db:c3:c7:ce:c7:90:65:09:59:55:60:a4:e8:60:1b:
                    be:3a:96:ff:45:20:4e:c5:f8:90:ef:e6:a6:20:e4:
                    1c:35:d0:2a:4c:d3:38:0f:cf
                Exponent: 65537 (0x10001)
        X509v3 extensions:
            X509v3 Basic Constraints: 
                CA:FALSE
            Netscape Comment: 
                OpenSSL Generated Certificate
            X509v3 Subject Key Identifier: 
                68:11:C5:C6:DE:4B:D6:97:BC:D8:59:C9:95:C3:8A:C1:D2:0F:64:31
            X509v3 Authority Key Identifier: 
                keyid:B2:B2:15:C9:3D:52:41:5D:02:3D:94:D2:C9:55:0C:C4:06:5B:40:87

    Signature Algorithm: sha1WithRSAEncryption
         00:6d:6d:f3:af:c9:a0:e4:d6:a9:87:f0:9e:6e:ab:48:eb:28:
         3b:31:87:cc:08:b3:13:b4:11:45:bb:f2:0c:b2:ef:79:d9:33:
         b3:f2:80:d8:47:6f:23:f2:02:9c:cd:9d:90:53:5e:fc:7a:47:
         d5:1f:58:9d:27:93:3f:62:40:3b:0c:37:16:4e:28:70:7a:64:
         39:9b:cf:71:55:33:2a:dd:cb:b4:2b:d3:73:de:07:a0:5d:b2:
         81:e8:33:65:ae:78:3d:99:2f:78:85:f2:4a:9a:02:97:1d:90:
         13:6b:d8:b9:be:4b:ff:e3:37:e4:e3:b1:19:fd:77:0e:14:48:
         1f:c0
-----BEGIN CERTIFICATE-----
MIIC3TCCAkagAwIBAgICEAAwDQYJKoZIhvcNAQEFBQAwgYMxCzAJBgNVBAYTAlVT
MQswCQYDVQQIDAJOWTERMA8GA1UEBwwIU3lyYWN1c2UxCzAJBgNVBAoMAlNVMQ0w
CwYDVQQLDARFRUNTMQ8wDQYDVQQDDAZJUy5jb20xJzAlBgkqhkiG9w0BCQEWGGR1
YW5ob25neXUyMDEwQGdtYWlsLmNvbTAeFw0xNjA0MTkxODM5NDNaFw0xNzA0MTkx
ODM5NDNaMGcxCzAJBgNVBAYTAlVTMQswCQYDVQQIDAJOWTELMAkGA1UECgwCU1Ux
DTALBgNVBAsMBEVFQ1MxEDAOBgNVBAMMB2hvLmR1YW4xHTAbBgkqhkiG9w0BCQEW
DmhvZHVhbkBzeXIuZWR1MIGfMA0GCSqGSIb3DQEBAQUAA4GNADCBiQKBgQCjRGXS
FjjreJedt+v0PpKbD9xnsUmL/GIDmqYDa6I3Mu57RbhK/x+q1xEkqNovHParWF9U
vwme+o1o1He7emEniBkYuCLFSSgn7Qn4HwCRqUa4QbhiacD4ZNvDx87HkGUJWVVg
pOhgG746lv9FIE7F+JDv5qYg5Bw10CpM0zgPzwIDAQABo3sweTAJBgNVHRMEAjAA
MCwGCWCGSAGG+EIBDQQfFh1PcGVuU1NMIEdlbmVyYXRlZCBDZXJ0aWZpY2F0ZTAd
BgNVHQ4EFgQUaBHFxt5L1pe82FnJlcOKwdIPZDEwHwYDVR0jBBgwFoAUsrIVyT1S
QV0CPZTSyVUMxAZbQIcwDQYJKoZIhvcNAQEFBQADgYEAAG1t86/JoOTWqYfwnm6r
SOsoOzGHzAizE7QRRbvyDLLvedkzs/KA2EdvI/ICnM2dkFNe/HpH1R9YnSeTP2JA
Oww3Fk4ocHpkOZvPcVUzKt3LtCvTc94HoF2ygegzZa54PZkveIXySpoClx2QE2vY
ub5L/+M35OOxGf13DhRIH8A=
-----END CERTIFICATE-----
