Certificate:
    Data:
        Version: 3 (0x2)
        Serial Number: 4096 (0x1000)
    Signature Algorithm: sha1WithRSAEncryption
        Issuer: C=US, ST=NY, L=Syracuse, O=SU, OU=EECS, CN=ISLAB.com/emailAddress=duanhongyu2010@gmail.com
        Validity
            Not Before: Apr 28 20:14:56 2016 GMT
            Not After : Apr 28 20:14:56 2017 GMT
        Subject: C=US, ST=NY, O=SU, OU=EECS, CN=ho.duan/emailAddress=hoduan@syr.edu
        Subject Public Key Info:
            Public Key Algorithm: rsaEncryption
                Public-Key: (1024 bit)
                Modulus:
                    00:f5:8c:8a:99:8e:46:b1:bd:04:41:53:d9:86:73:
                    b6:c0:b3:a0:83:0a:b9:14:70:48:55:86:81:80:a1:
                    dd:07:85:21:1a:69:20:3e:7f:8d:e0:ba:89:21:68:
                    cd:70:ea:71:21:fb:fc:0a:b3:54:99:75:8e:05:31:
                    07:c4:4e:8b:ca:33:66:37:15:90:9b:81:93:7b:ff:
                    a4:b2:92:ba:6d:ce:e9:1f:1a:37:9c:78:d4:99:4f:
                    37:3d:3b:7a:f9:31:8b:e2:99:6e:84:31:6d:6c:70:
                    8c:41:14:04:c0:94:65:94:70:1c:6b:df:5a:f8:fa:
                    61:5d:70:68:c5:fe:8c:e8:d5
                Exponent: 65537 (0x10001)
        X509v3 extensions:
            X509v3 Basic Constraints: 
                CA:FALSE
            Netscape Comment: 
                OpenSSL Generated Certificate
            X509v3 Subject Key Identifier: 
                FA:1A:28:C3:29:69:F8:61:1A:1D:30:49:60:21:17:CD:BF:77:0B:DD
            X509v3 Authority Key Identifier: 
                keyid:DE:4C:F4:0A:52:C9:BE:5F:24:8E:11:E4:40:BE:6B:4D:B4:80:8E:86

    Signature Algorithm: sha1WithRSAEncryption
         66:c9:c5:be:b6:1f:0a:c1:98:ce:7e:0c:62:07:10:44:d0:52:
         8b:84:da:68:7a:d6:28:74:e4:6b:2d:b9:43:36:97:1f:8b:1e:
         d1:aa:12:64:ce:df:34:e5:77:72:d2:6f:c9:d3:45:93:c4:aa:
         a4:9b:c2:17:f6:cf:04:37:f5:9d:e4:07:9d:2a:4d:93:66:e4:
         8a:03:e2:ec:0c:07:60:7c:c4:d4:0a:f9:57:13:b8:b7:ee:f8:
         d0:0c:56:1c:2e:7e:42:36:7f:ff:23:78:43:cb:e6:a2:33:be:
         23:3b:3e:ec:98:35:cc:09:e7:3b:6f:c0:6c:49:f5:0c:1b:ce:
         68:18
-----BEGIN CERTIFICATE-----
MIIC4DCCAkmgAwIBAgICEAAwDQYJKoZIhvcNAQEFBQAwgYYxCzAJBgNVBAYTAlVT
MQswCQYDVQQIDAJOWTERMA8GA1UEBwwIU3lyYWN1c2UxCzAJBgNVBAoMAlNVMQ0w
CwYDVQQLDARFRUNTMRIwEAYDVQQDDAlJU0xBQi5jb20xJzAlBgkqhkiG9w0BCQEW
GGR1YW5ob25neXUyMDEwQGdtYWlsLmNvbTAeFw0xNjA0MjgyMDE0NTZaFw0xNzA0
MjgyMDE0NTZaMGcxCzAJBgNVBAYTAlVTMQswCQYDVQQIDAJOWTELMAkGA1UECgwC
U1UxDTALBgNVBAsMBEVFQ1MxEDAOBgNVBAMMB2hvLmR1YW4xHTAbBgkqhkiG9w0B
CQEWDmhvZHVhbkBzeXIuZWR1MIGfMA0GCSqGSIb3DQEBAQUAA4GNADCBiQKBgQD1
jIqZjkaxvQRBU9mGc7bAs6CDCrkUcEhVhoGAod0HhSEaaSA+f43guokhaM1w6nEh
+/wKs1SZdY4FMQfETovKM2Y3FZCbgZN7/6SykrptzukfGjeceNSZTzc9O3r5MYvi
mW6EMW1scIxBFATAlGWUcBxr31r4+mFdcGjF/ozo1QIDAQABo3sweTAJBgNVHRME
AjAAMCwGCWCGSAGG+EIBDQQfFh1PcGVuU1NMIEdlbmVyYXRlZCBDZXJ0aWZpY2F0
ZTAdBgNVHQ4EFgQU+hoowylp+GEaHTBJYCEXzb93C90wHwYDVR0jBBgwFoAU3kz0
ClLJvl8kjhHkQL5rTbSAjoYwDQYJKoZIhvcNAQEFBQADgYEAZsnFvrYfCsGYzn4M
YgcQRNBSi4TaaHrWKHTkay25QzaXH4se0aoSZM7fNOV3ctJvydNFk8SqpJvCF/bP
BDf1neQHnSpNk2bkigPi7AwHYHzE1Ar5VxO4t+740AxWHC5+QjZ//yN4Q8vmojO+
Izs+7Jg1zAnnO2/AbEn1DBvOaBg=
-----END CERTIFICATE-----
